target datalayout = "e-m:e-p270:32:32-p271:32:32-p272:64:64-i64:64-i128:128-f80:128-n8:16:32:64-S128"
target triple = "x86_64-unknown-linux-gnu"

%"struct.ClipperLib::IntPoint" = type { i64, i64 }

; Function Attrs: mustprogress nounwind uwtable
define linkonce_odr hidden noundef zeroext i1 @_ZN10ClipperLibeqERKNS_8IntPointES2_(ptr noundef nonnull align 8 dereferenceable(16) %a, ptr noundef nonnull align 8 dereferenceable(16) %b) #1 comdat {
entry:
  %a.addr = alloca ptr, align 8
  %b.addr = alloca ptr, align 8
  store ptr %a, ptr %a.addr, align 8
  store ptr %b, ptr %b.addr, align 8
  %0 = load ptr, ptr %a.addr, align 8
  %X = getelementptr inbounds %"struct.ClipperLib::IntPoint", ptr %0, i32 0, i32 0
  %1 = load i64, ptr %X, align 8
  %2 = load ptr, ptr %b.addr, align 8
  %X1 = getelementptr inbounds %"struct.ClipperLib::IntPoint", ptr %2, i32 0, i32 0
  %3 = load i64, ptr %X1, align 8
  %cmp = icmp eq i64 %1, %3
  br i1 %cmp, label %land.rhs, label %land.end

land.rhs:                                         ; preds = %entry
  %4 = load ptr, ptr %a.addr, align 8
  %Y = getelementptr inbounds %"struct.ClipperLib::IntPoint", ptr %4, i32 0, i32 1
  %5 = load i64, ptr %Y, align 8
  %6 = load ptr, ptr %b.addr, align 8
  %Y2 = getelementptr inbounds %"struct.ClipperLib::IntPoint", ptr %6, i32 0, i32 1
  %7 = load i64, ptr %Y2, align 8
  %cmp3 = icmp eq i64 %5, %7
  br label %land.end

land.end:                                         ; preds = %land.rhs, %entry
  %8 = phi i1 [ false, %entry ], [ %cmp3, %land.rhs ]
  ret i1 %8
}

; Function Attrs: mustprogress uwtable
define hidden noundef zeroext i1 @_ZN10ClipperLib21Pt2IsBetweenPt1AndPt3ENS_8IntPointES0_S0_(i64 %pt1.coerce0, i64 %pt1.coerce1, i64 %pt2.coerce0, i64 %pt2.coerce1, i64 %pt3.coerce0, i64 %pt3.coerce1) #0 {
entry:
  %retval = alloca i1, align 1
  %pt1 = alloca %"struct.ClipperLib::IntPoint", align 8
  %pt2 = alloca %"struct.ClipperLib::IntPoint", align 8
  %pt3 = alloca %"struct.ClipperLib::IntPoint", align 8
  %0 = getelementptr inbounds { i64, i64 }, ptr %pt1, i32 0, i32 0
  store i64 %pt1.coerce0, ptr %0, align 8
  %1 = getelementptr inbounds { i64, i64 }, ptr %pt1, i32 0, i32 1
  store i64 %pt1.coerce1, ptr %1, align 8
  %2 = getelementptr inbounds { i64, i64 }, ptr %pt2, i32 0, i32 0
  store i64 %pt2.coerce0, ptr %2, align 8
  %3 = getelementptr inbounds { i64, i64 }, ptr %pt2, i32 0, i32 1
  store i64 %pt2.coerce1, ptr %3, align 8
  %4 = getelementptr inbounds { i64, i64 }, ptr %pt3, i32 0, i32 0
  store i64 %pt3.coerce0, ptr %4, align 8
  %5 = getelementptr inbounds { i64, i64 }, ptr %pt3, i32 0, i32 1
  store i64 %pt3.coerce1, ptr %5, align 8
  %call = call noundef zeroext i1 @_ZN10ClipperLibeqERKNS_8IntPointES2_(ptr noundef nonnull align 8 dereferenceable(16) %pt1, ptr noundef nonnull align 8 dereferenceable(16) %pt3)
  br i1 %call, label %if.then, label %lor.lhs.false

lor.lhs.false:                                    ; preds = %entry
  %call1 = call noundef zeroext i1 @_ZN10ClipperLibeqERKNS_8IntPointES2_(ptr noundef nonnull align 8 dereferenceable(16) %pt1, ptr noundef nonnull align 8 dereferenceable(16) %pt2)
  br i1 %call1, label %if.then, label %lor.lhs.false2

lor.lhs.false2:                                   ; preds = %lor.lhs.false
  %call3 = call noundef zeroext i1 @_ZN10ClipperLibeqERKNS_8IntPointES2_(ptr noundef nonnull align 8 dereferenceable(16) %pt3, ptr noundef nonnull align 8 dereferenceable(16) %pt2)
  br i1 %call3, label %if.then, label %if.else

if.then:                                          ; preds = %lor.lhs.false2, %lor.lhs.false, %entry
  store i1 false, ptr %retval, align 1
  br label %return

if.else:                                          ; preds = %lor.lhs.false2
  %X = getelementptr inbounds %"struct.ClipperLib::IntPoint", ptr %pt1, i32 0, i32 0
  %6 = load i64, ptr %X, align 8
  %X4 = getelementptr inbounds %"struct.ClipperLib::IntPoint", ptr %pt3, i32 0, i32 0
  %7 = load i64, ptr %X4, align 8
  %cmp = icmp ne i64 %6, %7
  br i1 %cmp, label %if.then5, label %if.else14

if.then5:                                         ; preds = %if.else
  %X6 = getelementptr inbounds %"struct.ClipperLib::IntPoint", ptr %pt2, i32 0, i32 0
  %8 = load i64, ptr %X6, align 8
  %X7 = getelementptr inbounds %"struct.ClipperLib::IntPoint", ptr %pt1, i32 0, i32 0
  %9 = load i64, ptr %X7, align 8
  %cmp8 = icmp sgt i64 %8, %9
  %conv = zext i1 %cmp8 to i32
  %X9 = getelementptr inbounds %"struct.ClipperLib::IntPoint", ptr %pt2, i32 0, i32 0
  %10 = load i64, ptr %X9, align 8
  %X10 = getelementptr inbounds %"struct.ClipperLib::IntPoint", ptr %pt3, i32 0, i32 0
  %11 = load i64, ptr %X10, align 8
  %cmp11 = icmp slt i64 %10, %11
  %conv12 = zext i1 %cmp11 to i32
  %cmp13 = icmp eq i32 %conv, %conv12
  store i1 %cmp13, ptr %retval, align 1
  br label %return

if.else14:                                        ; preds = %if.else
  %Y = getelementptr inbounds %"struct.ClipperLib::IntPoint", ptr %pt2, i32 0, i32 1
  %12 = load i64, ptr %Y, align 8
  %Y15 = getelementptr inbounds %"struct.ClipperLib::IntPoint", ptr %pt1, i32 0, i32 1
  %13 = load i64, ptr %Y15, align 8
  %cmp16 = icmp sgt i64 %12, %13
  %conv17 = zext i1 %cmp16 to i32
  %Y18 = getelementptr inbounds %"struct.ClipperLib::IntPoint", ptr %pt2, i32 0, i32 1
  %14 = load i64, ptr %Y18, align 8
  %Y19 = getelementptr inbounds %"struct.ClipperLib::IntPoint", ptr %pt3, i32 0, i32 1
  %15 = load i64, ptr %Y19, align 8
  %cmp20 = icmp slt i64 %14, %15
  %conv21 = zext i1 %cmp20 to i32
  %cmp22 = icmp eq i32 %conv17, %conv21
  store i1 %cmp22, ptr %retval, align 1
  br label %return

return:                                           ; preds = %if.else14, %if.then5, %if.then
  %16 = load i1, ptr %retval, align 1
  ret i1 %16
}