; Function Attrs: mustprogress nofree norecurse nosync nounwind willreturn memory(none) uwtable
define hidden noundef zeroext i1 @_ZN10ClipperLib21Pt2IsBetweenPt1AndPt3ENS_8IntPointES0_S0_(i64 %pt1.coerce0, i64 %pt1.coerce1, i64 %pt2.coerce0, i64 %pt2.coerce1, i64 %pt3.coerce0, i64 %pt3.coerce1) local_unnamed_addr #6 {
entry:
  %cmp.i = icmp eq i64 %pt1.coerce0, %pt3.coerce0
  %cmp3.i = icmp eq i64 %pt1.coerce1, %pt3.coerce1
  %0 = select i1 %cmp.i, i1 %cmp3.i, i1 false
  br i1 %0, label %return, label %lor.lhs.false

lor.lhs.false:                                    ; preds = %entry
  %cmp.i2 = icmp eq i64 %pt1.coerce0, %pt2.coerce0
  %cmp3.i5 = icmp eq i64 %pt1.coerce1, %pt2.coerce1
  %1 = select i1 %cmp.i2, i1 %cmp3.i5, i1 false
  br i1 %1, label %return, label %lor.lhs.false2

lor.lhs.false2:                                   ; preds = %lor.lhs.false
  %cmp.i6 = icmp eq i64 %pt3.coerce0, %pt2.coerce0
  %cmp3.i9 = icmp eq i64 %pt3.coerce1, %pt2.coerce1
  %2 = select i1 %cmp.i6, i1 %cmp3.i9, i1 false
  br i1 %2, label %return, label %if.else

if.else:                                          ; preds = %lor.lhs.false2
  br i1 %cmp.i, label %if.else14, label %if.then5

if.then5:                                         ; preds = %if.else
  %cmp8 = icmp sgt i64 %pt2.coerce0, %pt1.coerce0
  %3 = icmp sge i64 %pt2.coerce0, %pt3.coerce0
  %cmp13 = xor i1 %cmp8, %3
  br label %return

if.else14:                                        ; preds = %if.else
  %cmp16 = icmp sgt i64 %pt2.coerce1, %pt1.coerce1
  %4 = icmp sge i64 %pt2.coerce1, %pt3.coerce1
  %cmp22 = xor i1 %cmp16, %4
  br label %return

return:                                           ; preds = %entry, %lor.lhs.false, %lor.lhs.false2, %if.else14, %if.then5
  %retval.0 = phi i1 [ %cmp13, %if.then5 ], [ %cmp22, %if.else14 ], [ false, %lor.lhs.false2 ], [ false, %lor.lhs.false ], [ false, %entry ]
  ret i1 %retval.0
}